


ARM Macro Assembler    Page 1 


    1 00000000         ; generated by Component: ARM Compiler 5.06 update 4 (bu
                       ild 422) Tool: ArmCC [4d3604]
    2 00000000         ; commandline ArmCC [--c99 --split_sections --debug -c -
                       S -o.\objects\mian.s --depend=.\objects\mian.d --cpu=Cor
                       tex-M3 --apcs=interwork -O0 --diag_suppress=9931 -IC:\ke
                       il_work\Bootloader_stm32\RTE\Device\STM32F103RC -IC:\kei
                       l_work\Bootloader_stm32\RTE\_bootloader -IC:\Keil_v5\ARM
                       \PACK\ARM\CMSIS\5.0.0\CMSIS\Include -IC:\Keil_v5\ARM\PAC
                       K\Keil\STM32F1xx_DFP\2.1.0\Device\Include -IC:\Keil_v5\A
                       RM\PACK\Keil\STM32F1xx_DFP\2.1.0\Device\StdPeriph_Driver
                       \inc -D__MICROLIB -D__UVISION_VERSION=522 -D_RTE_ -DSTM3
                       2F10X_HD --omf_browse=.\objects\mian.crf mian.c]
    3 00000000                 THUMB
    4 00000000                 REQUIRE8
    5 00000000                 PRESERVE8
    6 00000000         
    7 00000000                 AREA             ||i.main||, CODE, READONLY, ALI
GN=2
    8 00000000         
    9 00000000         main    PROC
   10 00000000 B510            PUSH             {r4,lr}
   11 00000002 2100            MOVS             r1,#0
   12 00000004 F04F 6000       MOV              r0,#0x8000000
   13 00000008 F7FF FFFE       BL               NVIC_SetVectorTable
   14 0000000C B662            CPSIE            i
   15 0000000E F7FF FFFE       BL               USART1_init
   16 00000012 A00A            ADR              r0,|L0.60|
   17 00000014 F7FF FFFE       BL               LOG
   18 00000018 480C            LDR              r0,|L0.76|
   19 0000001A F7FF FFFE       BL               read_falsh_halfword
   20 0000001E F24F 0180       MOV              r1,#0xf080
   21 00000022 4288            CMP              r0,r1
   22 00000024 D102            BNE              |L0.44|
   23 00000026 F7FF FFFE       BL               start_app
   24 0000002A E005            B                |L0.56|
   25 0000002C         |L0.44|
   26 0000002C F7FF FFFE       BL               rece_ack
   27 00000030 E001            B                |L0.54|
   28 00000032         |L0.50|
   29 00000032 F7FF FFFE       BL               listener_USART1_data
   30 00000036         |L0.54|
   31 00000036 E7FC            B                |L0.50|
   32 00000038         |L0.56|
   33 00000038 2000            MOVS             r0,#0
   34 0000003A BD10            POP              {r4,pc}
   35 0000003C                 ENDP
   36 0000003C         
   37 0000003C         |L0.60|
   38 0000003C 62 6F 6F 
              74 6C 6F 
              61 64 65 
              72 0D 0A 
              00               DCB              "bootloader\r\n",0
   39 00000049 00              DCB              0
   40 0000004A 00              DCB              0
   41 0000004B 00              DCB              0
   42 0000004C         |L0.76|
   43 0000004C 08032800        DCD              0x08032800
   44 00000050         



ARM Macro Assembler    Page 2 


   45 00000050                 AREA             ||.arm_vfe_header||, DATA, READ
ONLY, NOALLOC, ALIGN=2
   46 00000000         
   47 00000000 00000000        DCD              0x00000000
   48 00000004         
   49 00000004         ;*** Start embedded assembler ***
   50 00000004         
   51 00000004         #line   1                "mian.c"
    1 00000004                 AREA             ||.rev16_text||, CODE
    2 00000000                 THUMB
    3 00000000                 EXPORT           |__asm___6_mian_c_main____REV16
|
    4 00000000         #line   441              "C:\\Keil_v5\\ARM\\PACK\\ARM\\C
MSIS\\5.0.0\\CMSIS\\Include\\cmsis_armcc.h"
  441 00000000         |__asm___6_mian_c_main____REV16|
                               PROC
  442 00000000         #line   442
  442 00000000         
  443 00000000 BA40            rev16            r0, r0
  444 00000002 4770            bx               lr
  445 00000004                 ENDP
  446 00000004                 AREA             ||.revsh_text||, CODE
  447 00000000                 THUMB
  448 00000000                 EXPORT           |__asm___6_mian_c_main____REVSH
|
  449 00000000         #line   456
  456 00000000         |__asm___6_mian_c_main____REVSH|
                               PROC
  457 00000000         #line   457
  457 00000000         
  458 00000000 BAC0            revsh            r0, r0
  459 00000002 4770            bx               lr
  460 00000004                 ENDP
  461 00000004                 AREA             ||.rrx_text||, CODE
  462 00000000                 THUMB
  463 00000000                 EXPORT           |__asm___6_mian_c_main____RRX|
  464 00000000         #line   643
  643 00000000         |__asm___6_mian_c_main____RRX|
                               PROC
  644 00000000         #line   644
  644 00000000         
  645 00000000 EA4F 0030       rrx              r0, r0
  646 00000004 4770            bx               lr
  647 00000006                 ENDP
  648 00000006         
  649 00000006         ;*** End   embedded assembler ***
  650 00000006         
  651 00000006 00000000 
                       __ARM_use_no_argv
                               EQU              0
  652 00000006         
  653 00000006                 EXPORT           __ARM_use_no_argv
  654 00000006                 EXPORT           main [CODE]
  655 00000006         
  656 00000006                 IMPORT           ||Lib$$Request$$armlib|| [CODE,
WEAK]
  657 00000006                 IMPORT           NVIC_SetVectorTable [CODE]
  658 00000006                 IMPORT           USART1_init [CODE]
  659 00000006                 IMPORT           LOG [CODE]



ARM Macro Assembler    Page 3 


  660 00000006                 IMPORT           read_falsh_halfword [CODE]
  661 00000006                 IMPORT           start_app [CODE]
  662 00000006                 IMPORT           rece_ack [CODE]
  663 00000006                 IMPORT           listener_USART1_data [CODE]
  664 00000006         
  665 00000006                 ATTR             FILESCOPE
  666 00000006                 ATTR             SETVALUE Tag_ABI_PCS_wchar_t,2
  667 00000006                 ATTR             SETVALUE Tag_ABI_enum_size,1
  668 00000006                 ATTR             SETVALUE Tag_ABI_optimization_g
oals,6
  669 00000006                 ATTR             SETSTRING Tag_conformance,"2.09
"
  670 00000006                 ATTR             SETVALUE AV,18,1
  671 00000006         
  672 00000006                 ASSERT           {ENDIAN} = "little"
  673 00000006                 ASSERT           {INTER} = {TRUE}
  674 00000006                 ASSERT           {ROPI} = {FALSE}
  675 00000006                 ASSERT           {RWPI} = {FALSE}
  676 00000006                 ASSERT           {IEEE_FULL} = {FALSE}
  677 00000006                 ASSERT           {IEEE_PART} = {FALSE}
  678 00000006                 ASSERT           {IEEE_JAVA} = {FALSE}
  679 00000006                 END
Command Line: --debug --xref --diag_suppress=9931 --cpu=Cortex-M3 --apcs=interw
ork -o.\objects\mian.o -IC:\keil_work\Bootloader_stm32\RTE\Device\STM32F103RC -
IC:\keil_work\Bootloader_stm32\RTE\_bootloader -IC:\Keil_v5\ARM\PACK\ARM\CMSIS\
5.0.0\CMSIS\Include -IC:\Keil_v5\ARM\PACK\Keil\STM32F1xx_DFP\2.1.0\Device\Inclu
de -IC:\Keil_v5\ARM\PACK\Keil\STM32F1xx_DFP\2.1.0\Device\StdPeriph_Driver\inc -
-predefine="__MICROLIB SETA 1" --predefine="__UVISION_VERSION SETA 522" --prede
fine="_RTE_ SETA 1" --predefine="STM32F10X_HD SETA 1" --list=.\listings\mian.ls
t .\objects\mian.s



ARM Macro Assembler    Page 1 Alphabetic symbol ordering
Relocatable symbols

L0.44 0000002C

Symbol: L0.44
   Definitions
      At line 25 in file .\objects\mian.s
   Uses
      At line 22 in file .\objects\mian.s
Comment: L0.44 used once
L0.50 00000032

Symbol: L0.50
   Definitions
      At line 28 in file .\objects\mian.s
   Uses
      At line 31 in file .\objects\mian.s
Comment: L0.50 used once
L0.54 00000036

Symbol: L0.54
   Definitions
      At line 30 in file .\objects\mian.s
   Uses
      At line 27 in file .\objects\mian.s
Comment: L0.54 used once
L0.56 00000038

Symbol: L0.56
   Definitions
      At line 32 in file .\objects\mian.s
   Uses
      At line 24 in file .\objects\mian.s
Comment: L0.56 used once
L0.60 0000003C

Symbol: L0.60
   Definitions
      At line 37 in file .\objects\mian.s
   Uses
      At line 16 in file .\objects\mian.s
Comment: L0.60 used once
L0.76 0000004C

Symbol: L0.76
   Definitions
      At line 42 in file .\objects\mian.s
   Uses
      At line 18 in file .\objects\mian.s
Comment: L0.76 used once
main 00000000

Symbol: main
   Definitions
      At line 9 in file .\objects\mian.s
   Uses
      At line 654 in file C:\\Keil_v5\\ARM\\PACK\\ARM\\CMSIS\\5.0.0\\CMSIS\\Inc
lude\\cmsis_armcc.h
Comment: main used once
|i.main| 00000000




ARM Macro Assembler    Page 2 Alphabetic symbol ordering
Relocatable symbols

Symbol: |i.main|
   Definitions
      At line 7 in file .\objects\mian.s
   Uses
      None
Comment: |i.main| unused
8 symbols



ARM Macro Assembler    Page 1 Alphabetic symbol ordering
Relocatable symbols

|.arm_vfe_header| 00000000

Symbol: |.arm_vfe_header|
   Definitions
      At line 45 in file .\objects\mian.s
   Uses
      None
Comment: |.arm_vfe_header| unused
1 symbol



ARM Macro Assembler    Page 1 Alphabetic symbol ordering
Relocatable symbols

__asm___6_mian_c_main____REV16 00000000

Symbol: __asm___6_mian_c_main____REV16
   Definitions
      At line 441 in file C:\\Keil_v5\\ARM\\PACK\\ARM\\CMSIS\\5.0.0\\CMSIS\\Inc
lude\\cmsis_armcc.h
   Uses
      At line 3 in file mian.c
Comment: __asm___6_mian_c_main____REV16 used once
|.rev16_text| 00000000

Symbol: |.rev16_text|
   Definitions
      At line 1 in file mian.c
   Uses
      None
Comment: |.rev16_text| unused
2 symbols



ARM Macro Assembler    Page 1 Alphabetic symbol ordering
Relocatable symbols

__asm___6_mian_c_main____REVSH 00000000

Symbol: __asm___6_mian_c_main____REVSH
   Definitions
      At line 456 in file C:\\Keil_v5\\ARM\\PACK\\ARM\\CMSIS\\5.0.0\\CMSIS\\Inc
lude\\cmsis_armcc.h
   Uses
      At line 448 in file C:\\Keil_v5\\ARM\\PACK\\ARM\\CMSIS\\5.0.0\\CMSIS\\Inc
lude\\cmsis_armcc.h
Comment: __asm___6_mian_c_main____REVSH used once
|.revsh_text| 00000000

Symbol: |.revsh_text|
   Definitions
      At line 446 in file C:\\Keil_v5\\ARM\\PACK\\ARM\\CMSIS\\5.0.0\\CMSIS\\Inc
lude\\cmsis_armcc.h
   Uses
      None
Comment: |.revsh_text| unused
2 symbols



ARM Macro Assembler    Page 1 Alphabetic symbol ordering
Relocatable symbols

__asm___6_mian_c_main____RRX 00000000

Symbol: __asm___6_mian_c_main____RRX
   Definitions
      At line 643 in file C:\\Keil_v5\\ARM\\PACK\\ARM\\CMSIS\\5.0.0\\CMSIS\\Inc
lude\\cmsis_armcc.h
   Uses
      At line 463 in file C:\\Keil_v5\\ARM\\PACK\\ARM\\CMSIS\\5.0.0\\CMSIS\\Inc
lude\\cmsis_armcc.h
Comment: __asm___6_mian_c_main____RRX used once
|.rrx_text| 00000000

Symbol: |.rrx_text|
   Definitions
      At line 461 in file C:\\Keil_v5\\ARM\\PACK\\ARM\\CMSIS\\5.0.0\\CMSIS\\Inc
lude\\cmsis_armcc.h
   Uses
      None
Comment: |.rrx_text| unused
2 symbols



ARM Macro Assembler    Page 1 Alphabetic symbol ordering
Absolute symbols

__ARM_use_no_argv 00000000

Symbol: __ARM_use_no_argv
   Definitions
      At line 651 in file C:\\Keil_v5\\ARM\\PACK\\ARM\\CMSIS\\5.0.0\\CMSIS\\Inc
lude\\cmsis_armcc.h
   Uses
      At line 653 in file C:\\Keil_v5\\ARM\\PACK\\ARM\\CMSIS\\5.0.0\\CMSIS\\Inc
lude\\cmsis_armcc.h
Comment: __ARM_use_no_argv used once
1 symbol



ARM Macro Assembler    Page 1 Alphabetic symbol ordering
External symbols

LOG 00000000

Symbol: LOG
   Definitions
      At line 659 in file C:\\Keil_v5\\ARM\\PACK\\ARM\\CMSIS\\5.0.0\\CMSIS\\Inc
lude\\cmsis_armcc.h
   Uses
      At line 17 in file .\objects\mian.s
Comment: LOG used once
NVIC_SetVectorTable 00000000

Symbol: NVIC_SetVectorTable
   Definitions
      At line 657 in file C:\\Keil_v5\\ARM\\PACK\\ARM\\CMSIS\\5.0.0\\CMSIS\\Inc
lude\\cmsis_armcc.h
   Uses
      At line 13 in file .\objects\mian.s
Comment: NVIC_SetVectorTable used once
USART1_init 00000000

Symbol: USART1_init
   Definitions
      At line 658 in file C:\\Keil_v5\\ARM\\PACK\\ARM\\CMSIS\\5.0.0\\CMSIS\\Inc
lude\\cmsis_armcc.h
   Uses
      At line 15 in file .\objects\mian.s
Comment: USART1_init used once
listener_USART1_data 00000000

Symbol: listener_USART1_data
   Definitions
      At line 663 in file C:\\Keil_v5\\ARM\\PACK\\ARM\\CMSIS\\5.0.0\\CMSIS\\Inc
lude\\cmsis_armcc.h
   Uses
      At line 29 in file .\objects\mian.s
Comment: listener_USART1_data used once
read_falsh_halfword 00000000

Symbol: read_falsh_halfword
   Definitions
      At line 660 in file C:\\Keil_v5\\ARM\\PACK\\ARM\\CMSIS\\5.0.0\\CMSIS\\Inc
lude\\cmsis_armcc.h
   Uses
      At line 19 in file .\objects\mian.s
Comment: read_falsh_halfword used once
rece_ack 00000000

Symbol: rece_ack
   Definitions
      At line 662 in file C:\\Keil_v5\\ARM\\PACK\\ARM\\CMSIS\\5.0.0\\CMSIS\\Inc
lude\\cmsis_armcc.h
   Uses
      At line 26 in file .\objects\mian.s
Comment: rece_ack used once
start_app 00000000

Symbol: start_app
   Definitions
      At line 661 in file C:\\Keil_v5\\ARM\\PACK\\ARM\\CMSIS\\5.0.0\\CMSIS\\Inc



ARM Macro Assembler    Page 2 Alphabetic symbol ordering
External symbols

lude\\cmsis_armcc.h
   Uses
      At line 23 in file .\objects\mian.s
Comment: start_app used once
|Lib$$Request$$armlib| 00000000

Symbol: |Lib$$Request$$armlib|
   Definitions
      At line 656 in file C:\\Keil_v5\\ARM\\PACK\\ARM\\CMSIS\\5.0.0\\CMSIS\\Inc
lude\\cmsis_armcc.h
   Uses
      None
Comment: |Lib$$Request$$armlib| unused
8 symbols
358 symbols in table
